# SymbolsHelper-Confirmed: 0.2.0+git202411302026 arm64 armhf ppc64el s390x
libdbusmenu-lxqt.so.0 libdbusmenu-lxqt0 #MINVER#
* Build-Depends-Package: libdbusmenu-lxqt0-dev
 _ZGVZN9QMetaType21registerConverterImplI5QListI12DBusMenuItemE9QIterableI13QMetaSequenceEEEbSt8functionIFbPKvPvEES_S_E10unregister@Base 0.1.0
 _ZGVZN9QMetaType21registerConverterImplI5QListI16DBusMenuItemKeysE9QIterableI13QMetaSequenceEEEbSt8functionIFbPKvPvEES_S_E10unregister@Base 0.1.0
 _ZGVZN9QMetaType21registerConverterImplI5QListI18DBusMenuLayoutItemE9QIterableI13QMetaSequenceEEEbSt8functionIFbPKvPvEES_S_E10unregister@Base 0.1.0
 _ZGVZN9QMetaType21registerConverterImplI5QListIiE9QIterableI13QMetaSequenceEEEbSt8functionIFbPKvPvEES_S_E10unregister@Base 0.1.0
 _ZGVZN9QMetaType23registerMutableViewImplI5QListI12DBusMenuItemE9QIterableI13QMetaSequenceEEEbSt8functionIFbPvS8_EES_S_E10unregister@Base 0.1.0
 _ZGVZN9QMetaType23registerMutableViewImplI5QListI16DBusMenuItemKeysE9QIterableI13QMetaSequenceEEEbSt8functionIFbPvS8_EES_S_E10unregister@Base 0.1.0
 _ZGVZN9QMetaType23registerMutableViewImplI5QListI18DBusMenuLayoutItemE9QIterableI13QMetaSequenceEEEbSt8functionIFbPvS8_EES_S_E10unregister@Base 0.1.0
 _ZGVZN9QMetaType23registerMutableViewImplI5QListIiE9QIterableI13QMetaSequenceEEEbSt8functionIFbPvS7_EES_S_E10unregister@Base 0.1.0
 _ZN13QMetaSequence12MetaSequenceI5QListI12DBusMenuItemEE5valueE@Base 0.1.0
 _ZN13QMetaSequence12MetaSequenceI5QListI16DBusMenuItemKeysEE5valueE@Base 0.1.0
 _ZN13QMetaSequence12MetaSequenceI5QListI18DBusMenuLayoutItemEE5valueE@Base 0.1.0
 _ZN13QMetaSequence12MetaSequenceI5QListIiEE5valueE@Base 0.1.0
 _ZN16DBusMenuExporter11qt_metacallEN11QMetaObject4CallEiPPv@Base 0.1.0
 _ZN16DBusMenuExporter11qt_metacastEPKc@Base 0.1.0
 _ZN16DBusMenuExporter14activateActionEP7QAction@Base 0.1.0
 _ZN16DBusMenuExporter15doUpdateActionsEv@Base 0.1.0
 _ZN16DBusMenuExporter16staticMetaObjectE@Base 0.1.0
 _ZN16DBusMenuExporter17iconNameForActionEP7QAction@Base 0.1.0
 _ZN16DBusMenuExporter19doEmitLayoutUpdatedEv@Base 0.1.0
 _ZN16DBusMenuExporter19slotActionDestroyedEP7QObject@Base 0.1.0
 _ZN16DBusMenuExporter9setStatusERK7QString@Base 0.1.0
 _ZN16DBusMenuExporterC1ERK7QStringP5QMenuRK15QDBusConnection@Base 0.1.0
 _ZN16DBusMenuExporterC2ERK7QStringP5QMenuRK15QDBusConnection@Base 0.1.0
 _ZN16DBusMenuExporterD0Ev@Base 0.1.0
 _ZN16DBusMenuExporterD1Ev@Base 0.1.0
 _ZN16DBusMenuExporterD2Ev@Base 0.1.0
 _ZN16DBusMenuImporter10createMenuEP7QWidget@Base 0.1.0
 _ZN16DBusMenuImporter10updateMenuEv@Base 0.1.0
 _ZN16DBusMenuImporter11iconForNameERK7QString@Base 0.1.0
 _ZN16DBusMenuImporter11menuUpdatedEv@Base 0.1.0
 _ZN16DBusMenuImporter11qt_metacallEN11QMetaObject4CallEiPPv@Base 0.1.0
 _ZN16DBusMenuImporter11qt_metacastEPKc@Base 0.1.0
 _ZN16DBusMenuImporter16sendClickedEventEi@Base 0.1.0
 _ZN16DBusMenuImporter16staticMetaObjectE@Base 0.1.0
 _ZN16DBusMenuImporter17slotLayoutUpdatedEji@Base 0.1.0
 _ZN16DBusMenuImporter18menuReadyToBeShownEv@Base 0.1.0
 _ZN16DBusMenuImporter19slotMenuAboutToHideEv@Base 0.1.0
 _ZN16DBusMenuImporter19slotMenuAboutToShowEv@Base 0.1.0
 _ZN16DBusMenuImporter21slotGetLayoutFinishedEP23QDBusPendingCallWatcher@Base 0.1.0
 _ZN16DBusMenuImporter25actionActivationRequestedEP7QAction@Base 0.1.0
 _ZN16DBusMenuImporter27processPendingLayoutUpdatesEv@Base 0.1.0
 _ZN16DBusMenuImporter27slotItemActivationRequestedEij@Base 0.1.0
 _ZN16DBusMenuImporter31slotAboutToShowDBusCallFinishedEP23QDBusPendingCallWatcher@Base 0.1.0
 _ZN16DBusMenuImporterC1ERK7QStringS2_20DBusMenuImporterTypeP7QObject@Base 0.1.0
 _ZN16DBusMenuImporterC1ERK7QStringS2_P7QObject@Base 0.1.0
 _ZN16DBusMenuImporterC2ERK7QStringS2_20DBusMenuImporterTypeP7QObject@Base 0.1.0
 _ZN16DBusMenuImporterC2ERK7QStringS2_P7QObject@Base 0.1.0
 _ZN16DBusMenuImporterD0Ev@Base 0.1.0
 _ZN16DBusMenuImporterD1Ev@Base 0.1.0
 _ZN16DBusMenuImporterD2Ev@Base 0.1.0
 _ZN16DBusMenuShortcut15fromKeySequenceERK12QKeySequence@Base 0.1.0
 _ZNK16DBusMenuExporter10metaObjectEv@Base 0.1.0
 _ZNK16DBusMenuExporter6statusEv@Base 0.1.0
 _ZNK16DBusMenuImporter10metaObjectEv@Base 0.1.0
 _ZNK16DBusMenuImporter4menuEv@Base 0.1.0
 _ZNK16DBusMenuShortcut13toKeySequenceEv@Base 0.1.0
 (optional=templinst|arch=!amd64 !arm64 !ppc64el !s390x)_ZNKSt8_Rb_treeI7QStringSt4pairIKS0_8QVariantESt10_Select1stIS4_ESt4lessIS0_ESaIS4_EE4findERS2_@Base 0.2.0
 (optional=templinst|arch=!amd64 !arm64 !ppc64el !s390x)_ZNSt8_Rb_treeI7QStringSt4pairIKS0_8QVariantESt10_Select1stIS4_ESt4lessIS0_ESaIS4_EE24_M_get_insert_unique_posERS2_@Base 0.2.0
 (optional=templinst|arch=armhf riscv64)_ZNSt8_Rb_treeI7QStringSt4pairIKS0_8QVariantESt10_Select1stIS4_ESt4lessIS0_ESaIS4_EE29_M_get_insert_hint_unique_posESt23_Rb_tree_const_iteratorIS4_ERS2_@Base 0.2.0
 (optional=templinst|arch=armhf)_ZNSt8_Rb_treeI7QStringSt4pairIKS0_8QVariantESt10_Select1stIS4_ESt4lessIS0_ESaIS4_EE4findERS2_@Base 0.2.0+git202411302026
 (arch=amd64 arm64 ppc64el s390x)_ZSt19piecewise_construct@Base 0.2.0+git202411302026
 _ZTI16DBusMenuExporter@Base 0.1.0
 _ZTI16DBusMenuImporter@Base 0.1.0
 _ZTIZN9QMetaType17registerConverterI5QListI12DBusMenuItemE9QIterableI13QMetaSequenceEN9QtPrivate33QSequentialIterableConvertFunctorIS3_EEEEbT1_EUlPKvPvE_@Base 0.1.0
 _ZTIZN9QMetaType17registerConverterI5QListI16DBusMenuItemKeysE9QIterableI13QMetaSequenceEN9QtPrivate33QSequentialIterableConvertFunctorIS3_EEEEbT1_EUlPKvPvE_@Base 0.1.0
 _ZTIZN9QMetaType17registerConverterI5QListI18DBusMenuLayoutItemE9QIterableI13QMetaSequenceEN9QtPrivate33QSequentialIterableConvertFunctorIS3_EEEEbT1_EUlPKvPvE_@Base 0.1.0
 _ZTIZN9QMetaType17registerConverterI5QListIiE9QIterableI13QMetaSequenceEN9QtPrivate33QSequentialIterableConvertFunctorIS2_EEEEbT1_EUlPKvPvE_@Base 0.1.0
 _ZTIZN9QMetaType19registerMutableViewI5QListI12DBusMenuItemE9QIterableI13QMetaSequenceEN9QtPrivate37QSequentialIterableMutableViewFunctorIS3_EEEEbT1_EUlPvSB_E_@Base 0.1.0
 _ZTIZN9QMetaType19registerMutableViewI5QListI16DBusMenuItemKeysE9QIterableI13QMetaSequenceEN9QtPrivate37QSequentialIterableMutableViewFunctorIS3_EEEEbT1_EUlPvSB_E_@Base 0.1.0
 _ZTIZN9QMetaType19registerMutableViewI5QListI18DBusMenuLayoutItemE9QIterableI13QMetaSequenceEN9QtPrivate37QSequentialIterableMutableViewFunctorIS3_EEEEbT1_EUlPvSB_E_@Base 0.1.0
 _ZTIZN9QMetaType19registerMutableViewI5QListIiE9QIterableI13QMetaSequenceEN9QtPrivate37QSequentialIterableMutableViewFunctorIS2_EEEEbT1_EUlPvSA_E_@Base 0.1.0
 _ZTS16DBusMenuExporter@Base 0.1.0
 _ZTS16DBusMenuImporter@Base 0.1.0
 _ZTSZN9QMetaType17registerConverterI5QListI12DBusMenuItemE9QIterableI13QMetaSequenceEN9QtPrivate33QSequentialIterableConvertFunctorIS3_EEEEbT1_EUlPKvPvE_@Base 0.1.0
 _ZTSZN9QMetaType17registerConverterI5QListI16DBusMenuItemKeysE9QIterableI13QMetaSequenceEN9QtPrivate33QSequentialIterableConvertFunctorIS3_EEEEbT1_EUlPKvPvE_@Base 0.1.0
 _ZTSZN9QMetaType17registerConverterI5QListI18DBusMenuLayoutItemE9QIterableI13QMetaSequenceEN9QtPrivate33QSequentialIterableConvertFunctorIS3_EEEEbT1_EUlPKvPvE_@Base 0.1.0
 _ZTSZN9QMetaType17registerConverterI5QListIiE9QIterableI13QMetaSequenceEN9QtPrivate33QSequentialIterableConvertFunctorIS2_EEEEbT1_EUlPKvPvE_@Base 0.1.0
 _ZTSZN9QMetaType19registerMutableViewI5QListI12DBusMenuItemE9QIterableI13QMetaSequenceEN9QtPrivate37QSequentialIterableMutableViewFunctorIS3_EEEEbT1_EUlPvSB_E_@Base 0.1.0
 _ZTSZN9QMetaType19registerMutableViewI5QListI16DBusMenuItemKeysE9QIterableI13QMetaSequenceEN9QtPrivate37QSequentialIterableMutableViewFunctorIS3_EEEEbT1_EUlPvSB_E_@Base 0.1.0
 _ZTSZN9QMetaType19registerMutableViewI5QListI18DBusMenuLayoutItemE9QIterableI13QMetaSequenceEN9QtPrivate37QSequentialIterableMutableViewFunctorIS3_EEEEbT1_EUlPvSB_E_@Base 0.1.0
 _ZTSZN9QMetaType19registerMutableViewI5QListIiE9QIterableI13QMetaSequenceEN9QtPrivate37QSequentialIterableMutableViewFunctorIS2_EEEEbT1_EUlPvSA_E_@Base 0.1.0
 _ZTV16DBusMenuExporter@Base 0.1.0
 _ZTV16DBusMenuImporter@Base 0.1.0
 _ZZN9QMetaType21registerConverterImplI5QListI12DBusMenuItemE9QIterableI13QMetaSequenceEEEbSt8functionIFbPKvPvEES_S_E10unregister@Base 0.1.0
 _ZZN9QMetaType21registerConverterImplI5QListI16DBusMenuItemKeysE9QIterableI13QMetaSequenceEEEbSt8functionIFbPKvPvEES_S_E10unregister@Base 0.1.0
 _ZZN9QMetaType21registerConverterImplI5QListI18DBusMenuLayoutItemE9QIterableI13QMetaSequenceEEEbSt8functionIFbPKvPvEES_S_E10unregister@Base 0.1.0
 _ZZN9QMetaType21registerConverterImplI5QListIiE9QIterableI13QMetaSequenceEEEbSt8functionIFbPKvPvEES_S_E10unregister@Base 0.1.0
 _ZZN9QMetaType23registerMutableViewImplI5QListI12DBusMenuItemE9QIterableI13QMetaSequenceEEEbSt8functionIFbPvS8_EES_S_E10unregister@Base 0.1.0
 _ZZN9QMetaType23registerMutableViewImplI5QListI16DBusMenuItemKeysE9QIterableI13QMetaSequenceEEEbSt8functionIFbPvS8_EES_S_E10unregister@Base 0.1.0
 _ZZN9QMetaType23registerMutableViewImplI5QListI18DBusMenuLayoutItemE9QIterableI13QMetaSequenceEEEbSt8functionIFbPvS8_EES_S_E10unregister@Base 0.1.0
 _ZZN9QMetaType23registerMutableViewImplI5QListIiE9QIterableI13QMetaSequenceEEEbSt8functionIFbPvS7_EES_S_E10unregister@Base 0.1.0
 _ZlsR13QDBusArgumentRK12DBusMenuItem@Base 0.1.0
 _ZlsR13QDBusArgumentRK16DBusMenuItemKeys@Base 0.1.0
 _ZlsR13QDBusArgumentRK16DBusMenuShortcut@Base 0.1.0
 _ZlsR13QDBusArgumentRK18DBusMenuLayoutItem@Base 0.1.0
 _ZrsRK13QDBusArgumentR12DBusMenuItem@Base 0.1.0
 _ZrsRK13QDBusArgumentR16DBusMenuItemKeys@Base 0.1.0
 _ZrsRK13QDBusArgumentR16DBusMenuShortcut@Base 0.1.0
 _ZrsRK13QDBusArgumentR18DBusMenuLayoutItem@Base 0.1.0
